target datalayout = "e-m:e-p270:32:32-p271:32:32-p272:64:64-i64:64-i128:128-f80:128-n8:16:32:64-S128"
target triple = "x86_64-pc-linux-gnu"

%struct.object_id = type { [32 x i8], i32 }
%struct.object = type { i32, %struct.object_id }
%struct.tree_desc = type { ptr, ptr, %struct.name_entry, i32, i32 }
%struct.name_entry = type { %struct.object_id, ptr, i32, i32 }
%struct.tree = type { %struct.object, ptr, i64 }

; Function Attrs: inlinehint nounwind uwtable
define internal i32 @parse_tree(ptr noundef %0) #2 {
  %2 = alloca ptr, align 8
  store ptr %0, ptr %2, align 8, !tbaa !150
  %3 = load ptr, ptr %2, align 8, !tbaa !150
  %4 = call i32 @parse_tree_gently(ptr noundef %3, i32 noundef 0)
  ret i32 %4
}

; Function Attrs: nounwind uwtable
define internal i32 @has_entries_with_high_bit(ptr noundef %0, ptr noundef %1) #0 {
  %3 = alloca i32, align 4
  %4 = alloca ptr, align 8
  %5 = alloca ptr, align 8
  %6 = alloca %struct.tree_desc, align 8
  %7 = alloca %struct.name_entry, align 8
  %8 = alloca i64, align 8
  %9 = alloca ptr, align 8
  %10 = alloca i32, align 4
  store ptr %0, ptr %4, align 8, !tbaa !61
  store ptr %1, ptr %5, align 8, !tbaa !150
  %11 = load ptr, ptr %5, align 8, !tbaa !150
  %12 = call i32 @parse_tree(ptr noundef %11)
  %13 = icmp ne i32 %12, 0
  br i1 %13, label %14, label %15

14:                                               ; preds = %2
  store i32 1, ptr %3, align 4
  br label %123

15:                                               ; preds = %2
  %16 = load ptr, ptr %5, align 8, !tbaa !150
  %17 = getelementptr inbounds nuw %struct.tree, ptr %16, i32 0, i32 0
  %18 = load i32, ptr %17, align 8
  %19 = lshr i32 %18, 4
  %20 = and i32 %19, 2097152
  %21 = icmp ne i32 %20, 0
  br i1 %21, label %113, label %22

22:                                               ; preds = %15
  call void @llvm.lifetime.start.p0(i64 80, ptr %6) #8
  call void @llvm.lifetime.start.p0(i64 56, ptr %7) #8
  %23 = load ptr, ptr %5, align 8, !tbaa !150
  %24 = getelementptr inbounds nuw %struct.tree, ptr %23, i32 0, i32 0
  %25 = getelementptr inbounds nuw %struct.object, ptr %24, i32 0, i32 1
  %26 = load ptr, ptr %5, align 8, !tbaa !150
  %27 = getelementptr inbounds nuw %struct.tree, ptr %26, i32 0, i32 1
  %28 = load ptr, ptr %27, align 8, !tbaa !151
  %29 = load ptr, ptr %5, align 8, !tbaa !150
  %30 = getelementptr inbounds nuw %struct.tree, ptr %29, i32 0, i32 2
  %31 = load i64, ptr %30, align 8, !tbaa !153
  call void @init_tree_desc(ptr noundef %6, ptr noundef %25, ptr noundef %28, i64 noundef %31)
  br label %32

32:                                               ; preds = %100, %22
  %33 = call i32 @tree_entry(ptr noundef %6, ptr noundef %7)
  %34 = icmp ne i32 %33, 0
  br i1 %34, label %35, label %101

35:                                               ; preds = %32
  call void @llvm.lifetime.start.p0(i64 8, ptr %8) #8
  store i64 0, ptr %8, align 8, !tbaa !40
  br label %36

36:                                               ; preds = %63, %35
  %37 = load i64, ptr %8, align 8, !tbaa !40
  %38 = getelementptr inbounds nuw %struct.name_entry, ptr %7, i32 0, i32 2
  %39 = load i32, ptr %38, align 8, !tbaa !154
  %40 = sext i32 %39 to i64
  %41 = icmp ult i64 %37, %40
  br i1 %41, label %42, label %66

42:                                               ; preds = %36
  %43 = getelementptr inbounds nuw %struct.name_entry, ptr %7, i32 0, i32 1
  %44 = load ptr, ptr %43, align 8, !tbaa !156
  %45 = load i64, ptr %8, align 8, !tbaa !40
  %46 = getelementptr inbounds nuw i8, ptr %44, i64 %45
  %47 = load i8, ptr %46, align 1, !tbaa !38
  %48 = sext i8 %47 to i32
  %49 = and i32 %48, 128
  %50 = icmp ne i32 %49, 0
  br i1 %50, label %51, label %62

51:                                               ; preds = %42
  %52 = load ptr, ptr %5, align 8, !tbaa !150
  %53 = getelementptr inbounds nuw %struct.tree, ptr %52, i32 0, i32 0
  %54 = load i32, ptr %53, align 8
  %55 = lshr i32 %54, 4
  %56 = or i32 %55, 4194304
  %57 = load i32, ptr %53, align 8
  %58 = and i32 %56, 268435455
  %59 = shl i32 %58, 4
  %60 = and i32 %57, 15
  %61 = or i32 %60, %59
  store i32 %61, ptr %53, align 8
  store i32 7, ptr %10, align 4
  br label %98

62:                                               ; preds = %42
  br label %63

63:                                               ; preds = %62
  %64 = load i64, ptr %8, align 8, !tbaa !40
  %65 = add i64 %64, 1
  store i64 %65, ptr %8, align 8, !tbaa !40
  br label %36, !llvm.loop !157

66:                                               ; preds = %36
  %67 = getelementptr inbounds nuw %struct.name_entry, ptr %7, i32 0, i32 3
  %68 = load i32, ptr %67, align 4, !tbaa !158
  %69 = and i32 %68, 61440
  %70 = icmp eq i32 %69, 16384
  br i1 %70, label %71, label %97

71:                                               ; preds = %66
  call void @llvm.lifetime.start.p0(i64 8, ptr %9) #8
  %72 = load ptr, ptr %4, align 8, !tbaa !61
  %73 = getelementptr inbounds nuw %struct.name_entry, ptr %7, i32 0, i32 0
  %74 = call ptr @lookup_tree(ptr noundef %72, ptr noundef %73)
  store ptr %74, ptr %9, align 8, !tbaa !150
  %75 = load ptr, ptr %9, align 8, !tbaa !150
  %76 = icmp ne ptr %75, null
  br i1 %76, label %77, label %93

77:                                               ; preds = %71
  %78 = load ptr, ptr %4, align 8, !tbaa !61
  %79 = load ptr, ptr %9, align 8, !tbaa !150
  %80 = call i32 @has_entries_with_high_bit(ptr noundef %78, ptr noundef %79)
  %81 = icmp ne i32 %80, 0
  br i1 %81, label %82, label %93

82:                                               ; preds = %77
  %83 = load ptr, ptr %5, align 8, !tbaa !150
  %84 = getelementptr inbounds nuw %struct.tree, ptr %83, i32 0, i32 0
  %85 = load i32, ptr %84, align 8
  %86 = lshr i32 %85, 4
  %87 = or i32 %86, 4194304
  %88 = load i32, ptr %84, align 8
  %89 = and i32 %87, 268435455
  %90 = shl i32 %89, 4
  %91 = and i32 %88, 15
  %92 = or i32 %91, %90
  store i32 %92, ptr %84, align 8
  store i32 7, ptr %10, align 4
  br label %94

93:                                               ; preds = %77, %71
  store i32 0, ptr %10, align 4
  br label %94

94:                                               ; preds = %82, %93
  call void @llvm.lifetime.end.p0(i64 8, ptr %9) #8
  %95 = load i32, ptr %10, align 4
  switch i32 %95, label %98 [
    i32 0, label %96
  ]

96:                                               ; preds = %94
  br label %97

97:                                               ; preds = %96, %66
  store i32 0, ptr %10, align 4
  br label %98

98:                                               ; preds = %51, %97, %94
  call void @llvm.lifetime.end.p0(i64 8, ptr %8) #8
  %99 = load i32, ptr %10, align 4
  switch i32 %99, label %125 [
    i32 0, label %100
    i32 7, label %102
  ]

100:                                              ; preds = %98
  br label %32, !llvm.loop !159

101:                                              ; preds = %32
  br label %102

102:                                              ; preds = %101, %98
  %103 = load ptr, ptr %5, align 8, !tbaa !150
  %104 = getelementptr inbounds nuw %struct.tree, ptr %103, i32 0, i32 0
  %105 = load i32, ptr %104, align 8
  %106 = lshr i32 %105, 4
  %107 = or i32 %106, 2097152
  %108 = load i32, ptr %104, align 8
  %109 = and i32 %107, 268435455
  %110 = shl i32 %109, 4
  %111 = and i32 %108, 15
  %112 = or i32 %111, %110
  store i32 %112, ptr %104, align 8
  call void @llvm.lifetime.end.p0(i64 56, ptr %7) #8
  call void @llvm.lifetime.end.p0(i64 80, ptr %6) #8
  br label %113

113:                                              ; preds = %102, %15
  %114 = load ptr, ptr %5, align 8, !tbaa !150
  %115 = getelementptr inbounds nuw %struct.tree, ptr %114, i32 0, i32 0
  %116 = load i32, ptr %115, align 8
  %117 = lshr i32 %116, 4
  %118 = and i32 %117, 4194304
  %119 = icmp ne i32 %118, 0
  %120 = xor i1 %119, true
  %121 = xor i1 %120, true
  %122 = zext i1 %121 to i32
  store i32 %122, ptr %3, align 4
  br label %123

123:                                              ; preds = %113, %14
  %124 = load i32, ptr %3, align 4
  ret i32 %124

125:                                              ; preds = %98
  unreachable
}