; Function Attrs: nounwind uwtable
define internal fastcc range(i32 0, 2) i32 @has_entries_with_high_bit(ptr noundef %0, ptr noundef nonnull %1) unnamed_addr #0 {
  %3 = alloca %struct.tree_desc, align 8
  %4 = alloca %struct.name_entry, align 8
  %5 = tail call i32 @parse_tree_gently(ptr noundef nonnull %1, i32 noundef 0) #14
  %.not = icmp eq i32 %5, 0
  br i1 %.not, label %6, label %42

6:                                                ; preds = %2
  %7 = load i32, ptr %1, align 8
  %8 = and i32 %7, 33554432
  %.not21 = icmp eq i32 %8, 0
  br i1 %.not21, label %9, label %39

9:                                                ; preds = %6
  call void @llvm.lifetime.start.p0(i64 80, ptr nonnull %3) #14
  call void @llvm.lifetime.start.p0(i64 56, ptr nonnull %4) #14
  %10 = getelementptr inbounds nuw i8, ptr %1, i64 4
  %11 = getelementptr inbounds nuw i8, ptr %1, i64 40
  %12 = load ptr, ptr %11, align 8, !tbaa !129
  %13 = getelementptr inbounds nuw i8, ptr %1, i64 48
  %14 = load i64, ptr %13, align 8, !tbaa !131
  call void @init_tree_desc(ptr noundef nonnull %3, ptr noundef nonnull %10, ptr noundef %12, i64 noundef %14) #14
  %15 = call i32 @tree_entry(ptr noundef nonnull %3, ptr noundef nonnull %4) #14
  %.not2233 = icmp eq i32 %15, 0
  br i1 %.not2233, label %.thread29, label %.preheader.lr.ph

.preheader.lr.ph:                                 ; preds = %9
  %16 = getelementptr inbounds nuw i8, ptr %4, i64 48
  %17 = getelementptr inbounds nuw i8, ptr %4, i64 40
  %18 = getelementptr inbounds nuw i8, ptr %4, i64 52
  br label %.preheader

.preheader:                                       ; preds = %.preheader.lr.ph, %.thread
  %19 = load i32, ptr %16, align 8, !tbaa !132
  %20 = sext i32 %19 to i64
  %.not34 = icmp eq i32 %19, 0
  br i1 %.not34, label %._crit_edge, label %.lr.ph

.lr.ph:                                           ; preds = %.preheader
  %21 = load ptr, ptr %17, align 8, !tbaa !134
  br label %24

22:                                               ; preds = %24
  %23 = add nuw i64 %.01932, 1
  %exitcond.not = icmp eq i64 %23, %20
  br i1 %exitcond.not, label %._crit_edge, label %24, !llvm.loop !135

24:                                               ; preds = %.lr.ph, %22
  %.01932 = phi i64 [ 0, %.lr.ph ], [ %23, %22 ]
  %25 = getelementptr inbounds nuw i8, ptr %21, i64 %.01932
  %26 = load i8, ptr %25, align 1, !tbaa !22
  %.not25 = icmp sgt i8 %26, -1
  br i1 %.not25, label %22, label %.thread29.sink.split

._crit_edge:                                      ; preds = %22, %.preheader
  %27 = load i32, ptr %18, align 4, !tbaa !136
  %28 = and i32 %27, 61440
  %29 = icmp eq i32 %28, 16384
  br i1 %29, label %30, label %.thread

30:                                               ; preds = %._crit_edge
  %31 = call ptr @lookup_tree(ptr noundef %0, ptr noundef nonnull %4) #14
  %.not23 = icmp eq ptr %31, null
  br i1 %.not23, label %.thread, label %32

32:                                               ; preds = %30
  %33 = call fastcc i32 @has_entries_with_high_bit(ptr noundef %0, ptr noundef %31)
  %.not24 = icmp eq i32 %33, 0
  br i1 %.not24, label %.thread, label %.thread29.sink.split

.thread:                                          ; preds = %30, %32, %._crit_edge
  %34 = call i32 @tree_entry(ptr noundef nonnull %3, ptr noundef nonnull %4) #14
  %.not22 = icmp eq i32 %34, 0
  br i1 %.not22, label %.thread29, label %.preheader

.thread29.sink.split:                             ; preds = %32, %24
  %35 = load i32, ptr %1, align 8
  %36 = or i32 %35, 67108864
  store i32 %36, ptr %1, align 8
  br label %.thread29

.thread29:                                        ; preds = %.thread, %.thread29.sink.split, %9
  %37 = load i32, ptr %1, align 8
  %38 = or i32 %37, 33554432
  store i32 %38, ptr %1, align 8
  call void @llvm.lifetime.end.p0(i64 56, ptr nonnull %4) #14
  call void @llvm.lifetime.end.p0(i64 80, ptr nonnull %3) #14
  br label %39

39:                                               ; preds = %.thread29, %6
  %40 = phi i32 [ %38, %.thread29 ], [ %7, %6 ]
  %41 = lshr i32 %40, 26
  %.lobit = and i32 %41, 1
  br label %42

42:                                               ; preds = %2, %39
  %.018 = phi i32 [ %.lobit, %39 ], [ 1, %2 ]
  ret i32 %.018
}